LIBRARY
SECTIONS .data READ WRITE SHARED
EXPORTS
	?GfuiScreenActivate@@YAXPAX@Z
	?GfuiFontHeight@@YAHH@Z
	?GfRlstGetNext@@YAPAUtRingList@@PAUtRingListHead@@PAU1@@Z
	?GfuiScrollListInsertElement@@YAHPAXHPADH0@Z
	?GfRlstGetFirst@@YAPAUtRingList@@PAUtRingListHead@@@Z
	?GfParmGetStr@@YAPADPAXPAD1111@Z
	?GfParmGetNum@@YAMPAXPAD1111M@Z
	?GfRlstAddLast@@YAXPAUtRingListHead@@PAUtRingList@@@Z
	?GfModInfoDir@@YAHIPADHPAPAUModList@@@Z
	?GfuiButtonCreate@@YAHPAXPADHHHHHH0P6AX0@Z022@Z
	?GfuiScrollListCreate@@YAHPAXHHHHHHH0P6AX0@Z@Z
	?GfuiLabelCreate@@YAHPAXPADHHHHH@Z
	?GfuiTitleCreate@@YAHPAXPADH@Z
	?GfuiScreenCreateEx@@YAPAXPAMPAXP6AX1@Z12H@Z
	?GfuiScreenRelease@@YAXPAX@Z
	?GfuiLabelSetText@@YAXPAXHPAD@Z
	?GfParmSetNum@@YAHPAXPAD1111M@Z
	?GfParmSetStr@@YAHPAXPAD1111@Z
	?GfParmSetStr@@YAHPAXPAD1111@Z
	?GfuiScrollListGetSelectedElement@@YAPADPAXHPAPAX@Z
	?GfuiScrollListExtractElement@@YAPADPAXHHPAPAX@Z
	?GfParmListClean@@YAHPAXPAD1@Z
	?GfuiAddSKey@@YAXPAXHPAD0P6AX0@Z@Z
	?GfuiHelpScreen@@YAXPAX@Z
	?GfuiAddKey@@YAXPAXEPAD0P6AX0@Z@Z
	?GfuiAddKey@@YAXPAXEPAD0P6AX0@Z@Z
	?GfuiAddKey@@YAXPAXEPAD0P6AX0@Z@Z
	?GfuiScrollListMoveSelectedElement@@YAHPAXHH@Z
	?GfuiScrollListGetElement@@YAPADPAXHHPAPAX@Z
	?GfuiScrollListExtractSelectedElement@@YAPADPAXHPAPAX@Z
	?GfRlstUnlinkFirst@@YAPAUtRingList@@PAUtRingListHead@@@Z
	?GfuiMenuBackQuitButtonCreate@@YAHPAXPAD10P6AX0@Z@Z
	?GfuiGrButtonCreate@@YAHPAXPAD111HHHH0P6AX0@Z022@Z
	?GfRlstSeekElt@@YAXPAUtRingListHead@@PAUtRingList@@@Z
	?GfRlstAddFirst@@YAXPAUtRingListHead@@PAUtRingList@@@Z
	?GfRlstUnlinkLast@@YAPAUtRingList@@PAUtRingListHead@@@Z
	?GfuiEditboxCreate@@YAHPAXPADHHHHH0P6AX0@Z2@Z
	?GfuiFontWidth@@YAHHPAD@Z
	?GfuiMenuScreenCreate@@YAPAXPAD@Z
	?GfuiEditboxSetString@@YAXPAXHPAD@Z
	?GfuiEditboxGetString@@YAPADPAXH@Z
	?GfParmMergeHandles@@YAPAXPAX0H@Z
	?GfParmCheckHandle@@YAHPAX0@Z
	?GfParmReadFile@@YAPAXPBDHPAPADPAH@Z
	?GfTrace@@YAXPAD@Z
	?GfModLoad@@YAHIPADPAPAUModList@@@Z
	?GfuiScreenShot@@YAXPAX@Z
	?GfTime2Str@@YAPADMH@Z
	?GfuiLabelCreateEx@@YAHPAXPADPAMHHHHH@Z
	?GfuiScreenCreate@@YAPAXXZ
	?GfImgWritePng@@YAHPAEPBDHH@Z
	?GfScrHeight@@3HA
	?GfScrWidth@@3HA
	?GfParmReleaseHandle@@YAHPAX@Z
	?GfDirGetList@@YAPAUFList@@PAD@Z
	?GfInit@@YAXXZ
	?GfuiMenuButtonCreate@@YAHPAXPAD10P6AX0@Z@Z
	?GfuiMenuDefaultKeysAdd@@YAXPAX@Z
	?GfModUnloadList@@YAHPAPAUModList@@@Z
	?GfScrMenuInit@@YAPAXPAX@Z
	?GfImgReadPng@@YAPAEPBDPAH1M@Z
	?GfuiLabelSetColor@@YAXPAXHPAM@Z
	?GfuiEnable@@YAHPAXHH@Z
	?GfParmWriteFile@@YAHPBDPAXPADH0@Z
	?GfRlstGetLast@@YAPAUtRingList@@PAUtRingListHead@@@Z
	?GfRlstGetPrev@@YAPAUtRingList@@PAUtRingListHead@@PAU1@@Z
	?GfuiPrintString@@YAXPADPAMHHHH@Z
	?GfTimeClock@@YANXZ
	?GfParmListSeekNext@@YAHPAXPAD1@Z
	?GfParmListSeekFirst@@YAHPAXPAD1@Z
	?GfParmGetEltNb@@YAHPAXPAD1@Z
	?GfuiScreenDeactivate@@YAXXZ
	?GfuiDisplay@@YAXXZ
	?GfuiVisiblilitySet@@YAXPAXHH@Z
	?GfuiDisplayNothing@@YAXXZ
	?GfParmListGetCurEltName@@YAPADPAXPAD1@Z
	?GfScrInit@@YAXHQAPAD@Z

	?RmPracticeResults@@YAXPAXPADPAUtRingListHead@@@Z
	?RmGetTrackName@@YAPADPAD@Z
	?RmInitCars@@YAHPAUtRmInfo@@@Z
	?RmDriverSelect@@YAXPAX@Z
	?RmTrackSelect@@YAXPAX@Z
	?RmPitMenuStart@@YAXPAUCarElt@@PAXP6AX1@Z@Z
	?RmDriversSelect@@YAXPAX@Z

	?RtTrackGetWidth@@YAMPAUtrackSeg@@M@Z
	?RtTrackHeightL@@YAMPAUtTrkLocPos@@@Z
	?RtTrackLocal2Global@@YAXPAUtTrkLocPos@@PAM1H@Z
	?RtTrackHeightG@@YAMPAUtrackSeg@@MM@Z
	?RtTrackSideTgAngleL@@YAMPAUtTrkLocPos@@@Z
	?RtTrackSideNormalG@@YAXPAUtrackSeg@@MMHPAUt3Dd@@@Z
	?RtTrackGlobal2Local@@YAXPAUtrackSeg@@MMPAUtTrkLocPos@@H@Z
	?RtTrackSurfaceNormalL@@YAXPAUtTrkLocPos@@PAUt3Dd@@@Z
